; Function Attrs: nounwind uwtable
define dso_local i32 @LZ4_compressHC_limitedOutput(ptr noundef %0, ptr noundef %1, i32 noundef %2, i32 noundef %3) local_unnamed_addr #4 {
  %5 = alloca i32, align 4
  %6 = tail call noalias dereferenceable_or_null(262200) ptr @malloc(i64 noundef 262200) #19
  %7 = icmp eq ptr %6, null
  br i1 %7, label %LZ4_compress_HC.exit, label %8

8:                                                ; preds = %4
  %9 = ptrtoint ptr %6 to i64
  %10 = and i64 %9, 7
  %.not.i.i.i = icmp eq i64 %10, 0
  br i1 %.not.i.i.i, label %LZ4_compress_HC_extStateHC_fastReset.exit.i.i, label %LZ4_compress_HC_extStateHC.exit.i

LZ4_compress_HC_extStateHC_fastReset.exit.i.i:    ; preds = %8
  tail call void @llvm.memset.p0.i64(ptr noundef nonnull align 8 dereferenceable(262192) %6, i8 0, i64 262184, i1 false)
  %11 = getelementptr inbounds nuw i8, ptr %6, i64 262180
  call void @llvm.lifetime.start.p0(i64 4, ptr nonnull %5)
  store i32 %2, ptr %5, align 4, !tbaa !17
  %12 = getelementptr inbounds nuw i8, ptr %6, i64 262184
  store ptr null, ptr %12, align 8, !tbaa !32
  store i16 9, ptr %11, align 4, !tbaa !26
  %13 = getelementptr inbounds nuw i8, ptr %6, i64 262144
  %14 = getelementptr inbounds nuw i8, ptr %6, i64 262152
  %15 = getelementptr inbounds nuw i8, ptr %6, i64 262168
  %16 = getelementptr inbounds nuw i8, ptr %6, i64 262176
  store i32 65536, ptr %16, align 8, !tbaa !33
  store ptr %0, ptr %14, align 8, !tbaa !13
  store ptr %0, ptr %13, align 8, !tbaa !4
  %17 = getelementptr inbounds nuw i8, ptr %6, i64 262160
  store ptr %0, ptr %17, align 8, !tbaa !34
  store i32 65536, ptr %15, align 8, !tbaa !14
  %18 = getelementptr inbounds nuw i8, ptr %6, i64 262172
  store i32 65536, ptr %18, align 4, !tbaa !35
  %19 = tail call i32 @LZ4_compressBound(i32 noundef %2) #18
  %20 = icmp slt i32 %3, %19
  %..i.i.i = zext i1 %20 to i32
  %21 = call fastcc i32 @LZ4HC_compress_generic(ptr noundef nonnull %6, ptr noundef %0, ptr noundef %1, ptr noundef nonnull %5, i32 noundef %3, i32 noundef 0, i32 noundef %..i.i.i)
  call void @llvm.lifetime.end.p0(i64 4, ptr nonnull %5)
  br label %LZ4_compress_HC_extStateHC.exit.i

LZ4_compress_HC_extStateHC.exit.i:                ; preds = %LZ4_compress_HC_extStateHC_fastReset.exit.i.i, %8
  %.0.i.i = phi i32 [ %21, %LZ4_compress_HC_extStateHC_fastReset.exit.i.i ], [ 0, %8 ]
  tail call void @free(ptr noundef nonnull %6) #18
  br label %LZ4_compress_HC.exit

LZ4_compress_HC.exit:                             ; preds = %4, %LZ4_compress_HC_extStateHC.exit.i
  %.0.i = phi i32 [ %.0.i.i, %LZ4_compress_HC_extStateHC.exit.i ], [ 0, %4 ]
  ret i32 %.0.i
}